target datalayout = "e-m:e-p270:32:32-p271:32:32-p272:64:64-i64:64-i128:128-f80:128-n8:16:32:64-S128"
target triple = "x86_64-unknown-linux-gnu"

%struct.FlashPartInfo = type { ptr, [6 x i8], i8, i32, i32, i32, i16, i8, ptr }
%struct.Flash = type { %struct.SSIPeripheral, ptr, ptr, i32, i32, i8, [16 x i8], i32, i32, i8, i8, i8, i32, i32, i32, i32, i8, i8, i8, i8, i8, i8, i8, i8, i8, i8, i8, i8, i8, i8, i8, i8, i8, i8, i8, i8, i8, i64, ptr }
%struct.SSIPeripheral = type { %struct.DeviceState, ptr, i8, i8 }
%struct.DeviceState = type { %struct.Object, ptr, ptr, i8, i8, i64, ptr, i32, i8, ptr, %struct.NamedGPIOListHead, %struct.NamedClockListHead, %struct.BusStateHead, i32, i32, i32, %struct.ResettableState, ptr, %struct.MemReentrancyGuard }
%struct.Object = type { ptr, ptr, ptr, i32, ptr }
%struct.NamedGPIOListHead = type { ptr }
%struct.NamedClockListHead = type { ptr }
%struct.BusStateHead = type { ptr }
%struct.ResettableState = type { i32, i8, i8 }
%struct.MemReentrancyGuard = type { i8 }

; Function Attrs: nounwind sspstrong uwtable
define internal void @flash_sync_page(ptr noundef %s, i32 noundef %page) #0 {
entry:
  %s.addr = alloca ptr, align 8
  %page.addr = alloca i32, align 4
  %iov = alloca ptr, align 8
  store ptr %s, ptr %s.addr, align 8
  store i32 %page, ptr %page.addr, align 4
  %0 = load ptr, ptr %s.addr, align 8
  %blk = getelementptr inbounds %struct.Flash, ptr %0, i32 0, i32 1
  %1 = load ptr, ptr %blk, align 8
  %tobool = icmp ne ptr %1, null
  br i1 %tobool, label %lor.lhs.false, label %if.then

lor.lhs.false:                                    ; preds = %entry
  %2 = load ptr, ptr %s.addr, align 8
  %blk1 = getelementptr inbounds %struct.Flash, ptr %2, i32 0, i32 1
  %3 = load ptr, ptr %blk1, align 8
  %call = call zeroext i1 @blk_is_writable(ptr noundef %3)
  br i1 %call, label %if.end, label %if.then

if.then:                                          ; preds = %lor.lhs.false, %entry
  br label %return

if.end:                                           ; preds = %lor.lhs.false
  %call2 = call noalias ptr @g_malloc_n(i64 noundef 1, i64 noundef 40) #8
  store ptr %call2, ptr %iov, align 8
  %4 = load ptr, ptr %iov, align 8
  call void @qemu_iovec_init(ptr noundef %4, i32 noundef 1)
  %5 = load ptr, ptr %iov, align 8
  %6 = load ptr, ptr %s.addr, align 8
  %storage = getelementptr inbounds %struct.Flash, ptr %6, i32 0, i32 2
  %7 = load ptr, ptr %storage, align 8
  %8 = load i32, ptr %page.addr, align 4
  %9 = load ptr, ptr %s.addr, align 8
  %pi = getelementptr inbounds %struct.Flash, ptr %9, i32 0, i32 38
  %10 = load ptr, ptr %pi, align 8
  %page_size = getelementptr inbounds %struct.FlashPartInfo, ptr %10, i32 0, i32 5
  %11 = load i32, ptr %page_size, align 8
  %mul = mul i32 %8, %11
  %idx.ext = zext i32 %mul to i64
  %add.ptr = getelementptr i8, ptr %7, i64 %idx.ext
  %12 = load ptr, ptr %s.addr, align 8
  %pi3 = getelementptr inbounds %struct.Flash, ptr %12, i32 0, i32 38
  %13 = load ptr, ptr %pi3, align 8
  %page_size4 = getelementptr inbounds %struct.FlashPartInfo, ptr %13, i32 0, i32 5
  %14 = load i32, ptr %page_size4, align 8
  %conv = zext i32 %14 to i64
  call void @qemu_iovec_add(ptr noundef %5, ptr noundef %add.ptr, i64 noundef %conv)
  %15 = load ptr, ptr %s.addr, align 8
  %blk5 = getelementptr inbounds %struct.Flash, ptr %15, i32 0, i32 1
  %16 = load ptr, ptr %blk5, align 8
  %17 = load i32, ptr %page.addr, align 4
  %18 = load ptr, ptr %s.addr, align 8
  %pi6 = getelementptr inbounds %struct.Flash, ptr %18, i32 0, i32 38
  %19 = load ptr, ptr %pi6, align 8
  %page_size7 = getelementptr inbounds %struct.FlashPartInfo, ptr %19, i32 0, i32 5
  %20 = load i32, ptr %page_size7, align 8
  %mul8 = mul i32 %17, %20
  %conv9 = zext i32 %mul8 to i64
  %21 = load ptr, ptr %iov, align 8
  %22 = load ptr, ptr %iov, align 8
  %call10 = call ptr @blk_aio_pwritev(ptr noundef %16, i64 noundef %conv9, ptr noundef %21, i32 noundef 0, ptr noundef @blk_sync_complete, ptr noundef %22)
  br label %return

return:                                           ; preds = %if.end, %if.then
  ret void
}

; Function Attrs: nounwind sspstrong uwtable
define internal void @flash_sync_dirty(ptr noundef %s, i64 noundef %newpage) #0 {
entry:
  %s.addr = alloca ptr, align 8
  %newpage.addr = alloca i64, align 8
  store ptr %s, ptr %s.addr, align 8
  store i64 %newpage, ptr %newpage.addr, align 8
  %0 = load ptr, ptr %s.addr, align 8
  %dirty_page = getelementptr inbounds %struct.Flash, ptr %0, i32 0, i32 37
  %1 = load i64, ptr %dirty_page, align 8
  %cmp = icmp sge i64 %1, 0
  br i1 %cmp, label %land.lhs.true, label %if.end

land.lhs.true:                                    ; preds = %entry
  %2 = load ptr, ptr %s.addr, align 8
  %dirty_page1 = getelementptr inbounds %struct.Flash, ptr %2, i32 0, i32 37
  %3 = load i64, ptr %dirty_page1, align 8
  %4 = load i64, ptr %newpage.addr, align 8
  %cmp2 = icmp ne i64 %3, %4
  br i1 %cmp2, label %if.then, label %if.end

if.then:                                          ; preds = %land.lhs.true
  %5 = load ptr, ptr %s.addr, align 8
  %6 = load ptr, ptr %s.addr, align 8
  %dirty_page3 = getelementptr inbounds %struct.Flash, ptr %6, i32 0, i32 37
  %7 = load i64, ptr %dirty_page3, align 8
  %conv = trunc i64 %7 to i32
  call void @flash_sync_page(ptr noundef %5, i32 noundef %conv)
  %8 = load i64, ptr %newpage.addr, align 8
  %9 = load ptr, ptr %s.addr, align 8
  %dirty_page4 = getelementptr inbounds %struct.Flash, ptr %9, i32 0, i32 37
  store i64 %8, ptr %dirty_page4, align 8
  br label %if.end

if.end:                                           ; preds = %if.then, %land.lhs.true, %entry
  ret void
}