; Function Attrs: nounwind sspstrong uwtable
define internal fastcc void @flash_sync_dirty(ptr noundef captures(none) %s, i64 noundef range(i64 -1, 4294967296) %newpage) unnamed_addr #0 {
entry:
  %dirty_page = getelementptr inbounds nuw i8, ptr %s, i64 272
  %0 = load i64, ptr %dirty_page, align 8
  %cmp = icmp slt i64 %0, 0
  %cmp2.not = icmp eq i64 %0, %newpage
  %or.cond = or i1 %cmp, %cmp2.not
  br i1 %or.cond, label %if.end, label %if.then

if.then:                                          ; preds = %entry
  %conv = trunc i64 %0 to i32
  %blk.i = getelementptr inbounds nuw i8, ptr %s, i64 176
  %1 = load ptr, ptr %blk.i, align 8
  %tobool.not.i = icmp eq ptr %1, null
  br i1 %tobool.not.i, label %flash_sync_page.exit, label %lor.lhs.false.i

lor.lhs.false.i:                                  ; preds = %if.then
  %call.i = tail call zeroext i1 @blk_is_writable(ptr noundef nonnull %1) #13
  br i1 %call.i, label %if.end.i, label %flash_sync_page.exit

if.end.i:                                         ; preds = %lor.lhs.false.i
  %call2.i = tail call noalias dereferenceable_or_null(40) ptr @g_malloc_n(i64 noundef 1, i64 noundef 40) #15
  tail call void @qemu_iovec_init(ptr noundef %call2.i, i32 noundef 1) #13
  %storage.i = getelementptr inbounds nuw i8, ptr %s, i64 184
  %2 = load ptr, ptr %storage.i, align 8
  %pi.i = getelementptr inbounds nuw i8, ptr %s, i64 280
  %3 = load ptr, ptr %pi.i, align 8
  %page_size.i = getelementptr inbounds nuw i8, ptr %3, i64 24
  %4 = load i32, ptr %page_size.i, align 8
  %mul.i = mul i32 %4, %conv
  %idx.ext.i = zext i32 %mul.i to i64
  %add.ptr.i = getelementptr i8, ptr %2, i64 %idx.ext.i
  %conv.i = zext i32 %4 to i64
  tail call void @qemu_iovec_add(ptr noundef %call2.i, ptr noundef %add.ptr.i, i64 noundef %conv.i) #13
  %5 = load ptr, ptr %blk.i, align 8
  %6 = load ptr, ptr %pi.i, align 8
  %page_size7.i = getelementptr inbounds nuw i8, ptr %6, i64 24
  %7 = load i32, ptr %page_size7.i, align 8
  %mul8.i = mul i32 %7, %conv
  %conv9.i = zext i32 %mul8.i to i64
  %call10.i = tail call ptr @blk_aio_pwritev(ptr noundef %5, i64 noundef %conv9.i, ptr noundef %call2.i, i32 noundef 0, ptr noundef nonnull @blk_sync_complete, ptr noundef %call2.i) #13
  br label %flash_sync_page.exit

flash_sync_page.exit:                             ; preds = %if.then, %lor.lhs.false.i, %if.end.i
  store i64 %newpage, ptr %dirty_page, align 8
  br label %if.end

if.end:                                           ; preds = %flash_sync_page.exit, %entry
  ret void
}